; Function Attrs: nounwind uwtable
define i64 @ZSTD_findDecompressedSize(ptr noundef %0, i64 noundef %1) local_unnamed_addr #0 {
  %3 = alloca %struct.ZSTD_frameSizeInfo, align 8
  %.not69 = icmp ult i64 %1, 5
  br i1 %.not69, label %._crit_edge, label %.lr.ph

.lr.ph:                                           ; preds = %2
  %4 = getelementptr inbounds nuw i8, ptr %3, i64 8
  br label %5

5:                                                ; preds = %.lr.ph, %23
  %.03272 = phi ptr [ %0, %.lr.ph ], [ %.234, %23 ]
  %.04071 = phi i64 [ %1, %.lr.ph ], [ %.242, %23 ]
  %.04470 = phi i64 [ 0, %.lr.ph ], [ %.145, %23 ]
  %.032.val = load i32, ptr %.03272, align 1, !tbaa !47
  %6 = and i32 %.032.val, -16
  %7 = icmp eq i32 %6, 407710288
  br i1 %7, label %8, label %15

8:                                                ; preds = %5
  %9 = icmp ult i64 %.04071, 8
  br i1 %9, label %.thread59, label %10

10:                                               ; preds = %8
  %11 = getelementptr inbounds nuw i8, ptr %.03272, i64 4
  %.val.i = load i32, ptr %11, align 1, !tbaa !47
  %12 = icmp ugt i32 %.val.i, -9
  %13 = zext i32 %.val.i to i64
  %14 = add nuw nsw i64 %13, 8
  %.not75 = icmp ugt i64 %14, %.04071
  %or.cond = select i1 %12, i1 true, i1 %.not75
  br i1 %or.cond, label %.thread59, label %23, !llvm.loop !59

15:                                               ; preds = %5
  %16 = call i64 @ZSTD_getFrameContentSize(ptr noundef nonnull %.03272, i64 noundef %.04071)
  %17 = icmp ugt i64 %16, -3
  br i1 %17, label %.thread59, label %18

18:                                               ; preds = %15
  %19 = add i64 %16, %.04470
  %.not65 = icmp ult i64 %19, %.04470
  br i1 %.not65, label %.thread59, label %20

20:                                               ; preds = %18
  call void @llvm.lifetime.start.p0(i64 24, ptr nonnull %3) #17
  call fastcc void @ZSTD_findFrameSizeInfo(ptr dead_on_unwind noalias writable align 8 %3, ptr noundef nonnull %.03272, i64 noundef %.04071, i32 noundef 0)
  %21 = load i64, ptr %4, align 8, !tbaa !61
  call void @llvm.lifetime.end.p0(i64 24, ptr nonnull %3) #17
  %22 = icmp ult i64 %21, -119
  br i1 %22, label %23, label %.thread59

23:                                               ; preds = %10, %20
  %.145 = phi i64 [ %19, %20 ], [ %.04470, %10 ]
  %..i.pn = phi i64 [ %21, %20 ], [ %14, %10 ]
  %.234 = getelementptr inbounds nuw i8, ptr %.03272, i64 %..i.pn
  %.242 = sub i64 %.04071, %..i.pn
  %.not = icmp ult i64 %.242, 5
  br i1 %.not, label %._crit_edge, label %5

._crit_edge:                                      ; preds = %23, %2
  %.044.lcssa = phi i64 [ 0, %2 ], [ %.145, %23 ]
  %.040.lcssa = phi i64 [ %1, %2 ], [ %.242, %23 ]
  %.not50 = icmp eq i64 %.040.lcssa, 0
  %.044.53 = select i1 %.not50, i64 %.044.lcssa, i64 -2
  br label %.thread59

.thread59:                                        ; preds = %15, %10, %8, %20, %18, %._crit_edge
  %.5 = phi i64 [ %.044.53, %._crit_edge ], [ %16, %15 ], [ -2, %10 ], [ -2, %8 ], [ -2, %18 ], [ -2, %20 ]
  ret i64 %.5
}